; Function Attrs: null_pointer_is_valid sspstrong uwtable
define internal fastcc void @struct_render_LINEFIX(ptr noundef %0, ptr noundef captures(none) %1, ptr noundef %2, i32 noundef %3) unnamed_addr #1 {
.critedge:
  %4 = load i32, ptr @hf_x11_struct_render_LINEFIX, align 4
  %5 = load i32, ptr %1, align 4
  %6 = tail call ptr @proto_tree_add_item(ptr noundef %2, i32 noundef %4, ptr noundef %0, i32 noundef %5, i32 noundef 16, i32 noundef 0)
  %7 = load i32, ptr @ett_x11_rectangle, align 4
  %8 = tail call ptr @proto_item_add_subtree(ptr noundef %6, i32 noundef %7)
  %.pre.i = load i32, ptr %1, align 4
  %9 = load i32, ptr @hf_x11_struct_render_POINTFIX, align 4
  %10 = tail call ptr @proto_tree_add_item(ptr noundef %8, i32 noundef %9, ptr noundef %0, i32 noundef %.pre.i, i32 noundef 8, i32 noundef 0)
  %11 = load i32, ptr @ett_x11_rectangle, align 4
  %12 = tail call ptr @proto_item_add_subtree(ptr noundef %10, i32 noundef %11)
  %13 = load i32, ptr @hf_x11_struct_render_POINTFIX_x, align 4
  %14 = load i32, ptr %1, align 4
  %15 = tail call ptr @proto_tree_add_item(ptr noundef %12, i32 noundef %13, ptr noundef %0, i32 noundef %14, i32 noundef 4, i32 noundef %3)
  %16 = load i32, ptr %1, align 4
  %17 = add i32 %16, 4
  store i32 %17, ptr %1, align 4
  %18 = load i32, ptr @hf_x11_struct_render_POINTFIX_y, align 4
  %19 = tail call ptr @proto_tree_add_item(ptr noundef %12, i32 noundef %18, ptr noundef %0, i32 noundef %17, i32 noundef 4, i32 noundef %3)
  %20 = load i32, ptr %1, align 4
  %21 = add i32 %20, 4
  store i32 %21, ptr %1, align 4
  %22 = load i32, ptr @hf_x11_struct_render_POINTFIX, align 4
  %23 = tail call ptr @proto_tree_add_item(ptr noundef %8, i32 noundef %22, ptr noundef %0, i32 noundef %21, i32 noundef 8, i32 noundef 0)
  %24 = load i32, ptr @ett_x11_rectangle, align 4
  %25 = tail call ptr @proto_item_add_subtree(ptr noundef %23, i32 noundef %24)
  %26 = load i32, ptr @hf_x11_struct_render_POINTFIX_x, align 4
  %27 = load i32, ptr %1, align 4
  %28 = tail call ptr @proto_tree_add_item(ptr noundef %25, i32 noundef %26, ptr noundef %0, i32 noundef %27, i32 noundef 4, i32 noundef %3)
  %29 = load i32, ptr %1, align 4
  %30 = add i32 %29, 4
  store i32 %30, ptr %1, align 4
  %31 = load i32, ptr @hf_x11_struct_render_POINTFIX_y, align 4
  %32 = tail call ptr @proto_tree_add_item(ptr noundef %25, i32 noundef %31, ptr noundef %0, i32 noundef %30, i32 noundef 4, i32 noundef %3)
  %33 = load i32, ptr %1, align 4
  %34 = add i32 %33, 4
  store i32 %34, ptr %1, align 4
  ret void
}